; ModuleID = '11/779.c'
source_filename = "11/779.c"
target datalayout = "e-m:e-p270:32:32-p271:32:32-p272:64:64-i64:64-f80:128-n8:16:32:64-S128"
target triple = "x86_64-pc-linux-gnu"

@.str = private unnamed_addr constant [9 x i8] c"%d %d %d\00", align 1
@.str.1 = private unnamed_addr constant [3 x i8] c"%d\00", align 1

; Function Attrs: noinline nounwind uwtable
define dso_local i32 @main() #0 {
  %1 = alloca i32, align 4
  %2 = alloca i32, align 4
  %3 = alloca i32, align 4
  %4 = alloca i32, align 4
  %5 = alloca i32, align 4
  store i32 0, i32* %1, align 4
  %6 = call i32 (i8*, ...) @__isoc99_scanf(i8* getelementptr inbounds ([9 x i8], [9 x i8]* @.str, i64 0, i64 0), i32* %2, i32* %3, i32* %4)
  %7 = load i32, i32* %2, align 4
  %8 = srem i32 %7, 4
  %9 = icmp eq i32 %8, 0
  br i1 %9, label %10, label %14

10:                                               ; preds = %0
  %11 = load i32, i32* %2, align 4
  %12 = srem i32 %11, 100
  %13 = icmp ne i32 %12, 0
  br i1 %13, label %22, label %14

14:                                               ; preds = %10, %0
  %15 = load i32, i32* %2, align 4
  %16 = srem i32 %15, 100
  %17 = icmp eq i32 %16, 0
  br i1 %17, label %18, label %60

18:                                               ; preds = %14
  %19 = load i32, i32* %2, align 4
  %20 = srem i32 %19, 400
  %21 = icmp eq i32 %20, 0
  br i1 %21, label %22, label %60

22:                                               ; preds = %18, %10
  %23 = load i32, i32* %3, align 4
  switch i32 %23, label %59 [
    i32 1, label %24
    i32 2, label %26
    i32 3, label %29
    i32 4, label %32
    i32 5, label %35
    i32 6, label %38
    i32 7, label %41
    i32 8, label %44
    i32 9, label %47
    i32 10, label %50
    i32 11, label %53
    i32 12, label %56
  ]

24:                                               ; preds = %22
  %25 = load i32, i32* %4, align 4
  store i32 %25, i32* %5, align 4
  br label %59

26:                                               ; preds = %22
  %27 = load i32, i32* %4, align 4
  %28 = add nsw i32 31, %27
  store i32 %28, i32* %5, align 4
  br label %59

29:                                               ; preds = %22
  %30 = load i32, i32* %4, align 4
  %31 = add nsw i32 60, %30
  store i32 %31, i32* %5, align 4
  br label %59

32:                                               ; preds = %22
  %33 = load i32, i32* %4, align 4
  %34 = add nsw i32 91, %33
  store i32 %34, i32* %5, align 4
  br label %59

35:                                               ; preds = %22
  %36 = load i32, i32* %4, align 4
  %37 = add nsw i32 121, %36
  store i32 %37, i32* %5, align 4
  br label %59

38:                                               ; preds = %22
  %39 = load i32, i32* %4, align 4
  %40 = add nsw i32 152, %39
  store i32 %40, i32* %5, align 4
  br label %59

41:                                               ; preds = %22
  %42 = load i32, i32* %4, align 4
  %43 = add nsw i32 182, %42
  store i32 %43, i32* %5, align 4
  br label %59

44:                                               ; preds = %22
  %45 = load i32, i32* %4, align 4
  %46 = add nsw i32 213, %45
  store i32 %46, i32* %5, align 4
  br label %59

47:                                               ; preds = %22
  %48 = load i32, i32* %4, align 4
  %49 = add nsw i32 244, %48
  store i32 %49, i32* %5, align 4
  br label %59

50:                                               ; preds = %22
  %51 = load i32, i32* %4, align 4
  %52 = add nsw i32 274, %51
  store i32 %52, i32* %5, align 4
  br label %59

53:                                               ; preds = %22
  %54 = load i32, i32* %4, align 4
  %55 = add nsw i32 305, %54
  store i32 %55, i32* %5, align 4
  br label %59

56:                                               ; preds = %22
  %57 = load i32, i32* %4, align 4
  %58 = add nsw i32 335, %57
  store i32 %58, i32* %5, align 4
  br label %59

59:                                               ; preds = %22, %56, %53, %50, %47, %44, %41, %38, %35, %32, %29, %26, %24
  br label %98

60:                                               ; preds = %18, %14
  %61 = load i32, i32* %3, align 4
  switch i32 %61, label %97 [
    i32 1, label %62
    i32 2, label %64
    i32 3, label %67
    i32 4, label %70
    i32 5, label %73
    i32 6, label %76
    i32 7, label %79
    i32 8, label %82
    i32 9, label %85
    i32 10, label %88
    i32 11, label %91
    i32 12, label %94
  ]

62:                                               ; preds = %60
  %63 = load i32, i32* %4, align 4
  store i32 %63, i32* %5, align 4
  br label %97

64:                                               ; preds = %60
  %65 = load i32, i32* %4, align 4
  %66 = add nsw i32 31, %65
  store i32 %66, i32* %5, align 4
  br label %97

67:                                               ; preds = %60
  %68 = load i32, i32* %4, align 4
  %69 = add nsw i32 59, %68
  store i32 %69, i32* %5, align 4
  br label %97

70:                                               ; preds = %60
  %71 = load i32, i32* %4, align 4
  %72 = add nsw i32 90, %71
  store i32 %72, i32* %5, align 4
  br label %97

73:                                               ; preds = %60
  %74 = load i32, i32* %4, align 4
  %75 = add nsw i32 120, %74
  store i32 %75, i32* %5, align 4
  br label %97

76:                                               ; preds = %60
  %77 = load i32, i32* %4, align 4
  %78 = add nsw i32 151, %77
  store i32 %78, i32* %5, align 4
  br label %97

79:                                               ; preds = %60
  %80 = load i32, i32* %4, align 4
  %81 = add nsw i32 181, %80
  store i32 %81, i32* %5, align 4
  br label %97

82:                                               ; preds = %60
  %83 = load i32, i32* %4, align 4
  %84 = add nsw i32 212, %83
  store i32 %84, i32* %5, align 4
  br label %97

85:                                               ; preds = %60
  %86 = load i32, i32* %4, align 4
  %87 = add nsw i32 243, %86
  store i32 %87, i32* %5, align 4
  br label %97

88:                                               ; preds = %60
  %89 = load i32, i32* %4, align 4
  %90 = add nsw i32 273, %89
  store i32 %90, i32* %5, align 4
  br label %97

91:                                               ; preds = %60
  %92 = load i32, i32* %4, align 4
  %93 = add nsw i32 304, %92
  store i32 %93, i32* %5, align 4
  br label %97

94:                                               ; preds = %60
  %95 = load i32, i32* %4, align 4
  %96 = add nsw i32 334, %95
  store i32 %96, i32* %5, align 4
  br label %97

97:                                               ; preds = %60, %94, %91, %88, %85, %82, %79, %76, %73, %70, %67, %64, %62
  br label %98

98:                                               ; preds = %97, %59
  %99 = load i32, i32* %5, align 4
  %100 = call i32 (i8*, ...) @printf(i8* getelementptr inbounds ([3 x i8], [3 x i8]* @.str.1, i64 0, i64 0), i32 %99)
  %101 = call i32 @getchar()
  %102 = call i32 @getchar()
  %103 = load i32, i32* %1, align 4
  ret i32 %103
}

declare dso_local i32 @__isoc99_scanf(i8*, ...) #1

declare dso_local i32 @printf(i8*, ...) #1

declare dso_local i32 @getchar() #1


!llvm.module.flags = !{!0}
!llvm.ident = !{!1}

!0 = !{i32 1, !"wchar_size", i32 4}
!1 = !{!"clang version 10.0.0-4ubuntu1 "}
